Certificate:
    Data:
        Version: 3 (0x2)
        Serial Number: 1 (0x1)
    Signature Algorithm: sha1WithRSAEncryption
        Issuer: DC=org, DC=simple, O=Simple Inc, OU=Simple Root CA, CN=Simple Root CA
        Validity
            Not Before: Dec  6 08:12:52 2020 GMT
            Not After : Dec  6 08:12:52 2030 GMT
        Subject: DC=org, DC=simple, O=Simple Inc, OU=Simple Root CA, CN=Simple Root CA
        Subject Public Key Info:
            Public Key Algorithm: rsaEncryption
                Public-Key: (2048 bit)
                Modulus:
                    00:a8:85:52:c4:59:47:f6:df:58:53:db:32:85:62:
                    f9:a5:b7:a7:d0:50:0d:b5:73:10:e9:70:4c:fd:18:
                    38:b4:53:9f:f2:88:8e:dc:f9:ce:50:73:10:ac:a5:
                    62:61:c0:af:8c:87:fd:fd:74:87:e3:c8:99:37:b2:
                    cc:68:cb:7e:aa:d1:35:bf:d9:25:5d:8b:c8:84:1f:
                    21:64:8f:3e:16:56:11:25:fd:23:f4:2a:23:63:f3:
                    9a:f3:05:75:9c:9a:13:93:cd:3a:58:20:ba:e5:7b:
                    d1:95:4e:5a:c4:c3:9c:12:96:3e:43:d3:e2:2f:2c:
                    5c:0c:3c:7a:af:f3:f8:e7:2f:96:79:bd:7e:49:cd:
                    64:9c:f4:78:c5:54:ca:a8:f7:98:bd:59:7b:f3:1c:
                    76:ba:6a:62:9b:b7:75:bd:53:77:85:35:23:ed:ec:
                    68:9d:f2:bd:e5:7d:61:43:66:a9:6a:d1:c8:ae:78:
                    c6:fc:0c:19:94:7b:60:43:2d:08:0f:aa:35:46:d3:
                    52:5b:ad:51:4e:5e:b7:cf:75:1a:f2:7a:22:66:96:
                    ac:dc:c1:17:06:52:a2:00:75:26:26:5f:18:18:57:
                    00:26:19:fe:d5:c8:2a:3a:b9:a8:13:8a:ef:65:ec:
                    91:e0:d5:b9:9c:89:ca:06:35:80:ba:00:72:27:97:
                    a6:81
                Exponent: 65537 (0x10001)
        X509v3 extensions:
            X509v3 Key Usage: critical
                Certificate Sign, CRL Sign
            X509v3 Basic Constraints: critical
                CA:TRUE
            X509v3 Subject Key Identifier: 
                08:6A:A3:1E:D6:F3:A4:9C:36:AF:AE:90:90:9B:C4:17:21:C9:27:9B
            X509v3 Authority Key Identifier: 
                keyid:08:6A:A3:1E:D6:F3:A4:9C:36:AF:AE:90:90:9B:C4:17:21:C9:27:9B

    Signature Algorithm: sha1WithRSAEncryption
         a5:9e:13:ed:5a:83:7a:df:69:a8:fc:bd:e2:99:03:1d:9f:fd:
         28:74:ed:56:a5:5a:bc:e2:54:d4:6d:2b:8c:8a:36:9e:48:c4:
         9e:d6:c1:2f:25:8c:bc:6d:5b:79:6f:03:d2:1e:86:a8:c4:bb:
         8b:6b:4a:7e:fd:e3:ac:66:f9:60:d2:fd:a1:dc:a3:0d:74:ab:
         33:ea:8e:62:94:25:a5:c2:7f:82:72:13:13:24:e9:b7:37:01:
         5a:5b:cd:07:4c:e1:4a:0a:df:04:1d:09:af:42:ff:42:20:43:
         ad:f5:7b:51:96:e1:22:de:05:10:3f:97:0e:9c:43:98:5e:4c:
         80:43:38:b7:12:04:32:d5:f3:1e:eb:4a:ca:36:51:23:f4:6d:
         bc:7b:42:d7:4f:e0:8c:94:e4:c4:68:56:84:f3:75:e5:99:98:
         87:06:6a:e5:de:08:77:a4:fb:1d:a2:5e:25:c1:82:9f:d8:23:
         21:6c:f9:65:10:83:e6:8e:fa:d4:26:a3:1f:34:f8:55:75:b0:
         8c:c5:31:ff:73:7b:40:48:01:41:53:7c:a5:88:4e:5f:70:2c:
         b2:d0:97:17:a2:a2:7b:ad:47:4f:6b:b7:7b:fc:dd:88:c6:f1:
         61:69:1c:0c:65:b8:54:5f:23:a4:40:3e:6e:a0:a5:0c:9a:dc:
         1b:1d:c8:0e
-----BEGIN CERTIFICATE-----
MIIDxjCCAq6gAwIBAgIBATANBgkqhkiG9w0BAQUFADB0MRMwEQYKCZImiZPyLGQB
GRYDb3JnMRYwFAYKCZImiZPyLGQBGRYGc2ltcGxlMRMwEQYDVQQKDApTaW1wbGUg
SW5jMRcwFQYDVQQLDA5TaW1wbGUgUm9vdCBDQTEXMBUGA1UEAwwOU2ltcGxlIFJv
b3QgQ0EwHhcNMjAxMjA2MDgxMjUyWhcNMzAxMjA2MDgxMjUyWjB0MRMwEQYKCZIm
iZPyLGQBGRYDb3JnMRYwFAYKCZImiZPyLGQBGRYGc2ltcGxlMRMwEQYDVQQKDApT
aW1wbGUgSW5jMRcwFQYDVQQLDA5TaW1wbGUgUm9vdCBDQTEXMBUGA1UEAwwOU2lt
cGxlIFJvb3QgQ0EwggEiMA0GCSqGSIb3DQEBAQUAA4IBDwAwggEKAoIBAQCohVLE
WUf231hT2zKFYvmlt6fQUA21cxDpcEz9GDi0U5/yiI7c+c5QcxCspWJhwK+Mh/39
dIfjyJk3ssxoy36q0TW/2SVdi8iEHyFkjz4WVhEl/SP0KiNj85rzBXWcmhOTzTpY
ILrle9GVTlrEw5wSlj5D0+IvLFwMPHqv8/jnL5Z5vX5JzWSc9HjFVMqo95i9WXvz
HHa6amKbt3W9U3eFNSPt7Gid8r3lfWFDZqlq0ciueMb8DBmUe2BDLQgPqjVG01Jb
rVFOXrfPdRryeiJmlqzcwRcGUqIAdSYmXxgYVwAmGf7VyCo6uagTiu9l7JHg1bmc
icoGNYC6AHInl6aBAgMBAAGjYzBhMA4GA1UdDwEB/wQEAwIBBjAPBgNVHRMBAf8E
BTADAQH/MB0GA1UdDgQWBBQIaqMe1vOknDavrpCQm8QXIcknmzAfBgNVHSMEGDAW
gBQIaqMe1vOknDavrpCQm8QXIcknmzANBgkqhkiG9w0BAQUFAAOCAQEApZ4T7VqD
et9pqPy94pkDHZ/9KHTtVqVavOJU1G0rjIo2nkjEntbBLyWMvG1beW8D0h6GqMS7
i2tKfv3jrGb5YNL9odyjDXSrM+qOYpQlpcJ/gnITEyTptzcBWlvNB0zhSgrfBB0J
r0L/QiBDrfV7UZbhIt4FED+XDpxDmF5MgEM4txIEMtXzHutKyjZRI/RtvHtC10/g
jJTkxGhWhPN15ZmYhwZq5d4Id6T7HaJeJcGCn9gjIWz5ZRCD5o761CajHzT4VXWw
jMUx/3N7QEgBQVN8pYhOX3AsstCXF6Kie61HT2u3e/zdiMbxYWkcDGW4VF8jpEA+
bqClDJrcGx3IDg==
-----END CERTIFICATE-----
