Certificate:
    Data:
        Version: 3 (0x2)
        Serial Number: 2 (0x2)
    Signature Algorithm: sha1WithRSAEncryption
        Issuer: DC=org, DC=simple, O=Simple Inc, OU=Simple Root CA, CN=Simple Root CA
        Validity
            Not Before: Dec  6 19:23:25 2020 GMT
            Not After : Dec  6 19:23:25 2030 GMT
        Subject: DC=org, DC=simple, O=Simple Inc, OU=Simple Signing CA, CN=Simple Signing CA
        Subject Public Key Info:
            Public Key Algorithm: rsaEncryption
                Public-Key: (2048 bit)
                Modulus:
                    00:a2:74:0e:71:4e:e9:bb:9d:2f:c2:d2:46:8a:b2:
                    8d:0b:35:07:bb:71:29:7a:d1:53:50:0b:77:3c:92:
                    8f:dc:1a:cc:af:0c:5a:e1:80:36:c6:9f:33:19:96:
                    74:39:d3:8c:d8:7d:a4:eb:47:69:1b:a7:5f:28:eb:
                    8f:e4:73:c3:92:3e:80:cb:f5:16:a0:32:87:8c:30:
                    45:af:0d:f5:8d:b0:40:14:36:9a:63:4f:60:c7:f0:
                    8e:e8:f0:3e:ce:69:7e:06:35:c0:b6:dc:62:04:fc:
                    0d:ef:23:fe:be:d2:62:62:96:1c:93:bc:36:b0:e9:
                    e7:6d:b3:0f:2d:a7:d7:68:08:79:bf:1c:9b:9c:6b:
                    db:29:cc:6e:de:4b:ae:7d:fb:43:7c:a4:be:fc:cc:
                    83:64:8d:09:bc:f3:9b:62:93:2b:2e:ef:a0:7b:7b:
                    e7:e3:80:47:29:ca:86:4a:c0:7c:75:9c:7f:67:71:
                    eb:4b:c0:c2:76:c4:1e:90:cc:21:51:9e:62:f3:78:
                    75:a0:51:8d:fd:8f:bd:62:b8:fc:a6:70:2e:ff:9a:
                    9e:ea:80:b0:f7:26:e6:35:82:9d:56:f5:46:a1:83:
                    4e:9b:4a:5c:a4:ab:7e:8f:30:66:5c:9e:d8:ec:c2:
                    fb:7c:38:4e:04:9d:4b:13:c7:61:70:b5:b8:66:38:
                    78:4d
                Exponent: 65537 (0x10001)
        X509v3 extensions:
            X509v3 Key Usage: critical
                Certificate Sign, CRL Sign
            X509v3 Basic Constraints: critical
                CA:TRUE, pathlen:0
            X509v3 Subject Key Identifier: 
                2E:B4:2E:E9:A4:7A:0E:1E:90:A6:E4:E7:A1:06:C2:F6:4C:39:0B:AB
            X509v3 Authority Key Identifier: 
                keyid:08:6A:A3:1E:D6:F3:A4:9C:36:AF:AE:90:90:9B:C4:17:21:C9:27:9B

    Signature Algorithm: sha1WithRSAEncryption
         9a:d7:71:73:1b:b4:ac:a5:52:04:e2:a7:18:a8:e7:28:4c:26:
         1e:8c:9f:40:65:b1:a0:27:cd:b0:7b:df:61:28:c2:7e:b3:cc:
         10:b6:d5:17:6b:53:91:66:42:98:68:c8:d9:b9:b7:18:df:ff:
         29:a7:05:9b:bd:8a:94:36:27:03:05:cf:1a:b1:ea:0f:11:fe:
         46:67:23:b3:76:6b:f2:ae:8d:66:ef:3d:9b:9c:fb:95:73:e8:
         87:14:09:7f:fe:65:e8:ac:2c:33:27:b7:e5:40:de:0d:96:38:
         b5:28:f5:fb:71:5e:d0:9b:a2:e5:1d:c1:c2:81:15:01:bc:4b:
         64:fa:e7:82:20:a9:7b:57:ab:3d:d4:a4:35:ad:10:b2:ad:d7:
         69:02:5e:d3:ca:01:7f:6b:50:0b:f1:15:2d:49:f9:25:f3:c7:
         2c:02:29:5a:3a:56:75:db:4b:d9:31:b3:d5:be:89:0c:2b:34:
         f9:87:5e:f4:c3:19:1c:44:3e:d6:68:ac:86:f4:08:2f:5a:18:
         b9:4f:49:89:09:3e:9f:e7:87:0b:0a:b3:bc:5d:72:99:d2:1e:
         85:5d:1b:7e:f7:99:5d:5e:db:24:77:78:28:f7:05:04:36:94:
         8e:3b:09:27:80:b6:d9:70:27:c3:95:57:4b:94:07:c0:c8:27:
         b1:34:21:27
-----BEGIN CERTIFICATE-----
MIIDzzCCAregAwIBAgIBAjANBgkqhkiG9w0BAQUFADB0MRMwEQYKCZImiZPyLGQB
GRYDb3JnMRYwFAYKCZImiZPyLGQBGRYGc2ltcGxlMRMwEQYDVQQKDApTaW1wbGUg
SW5jMRcwFQYDVQQLDA5TaW1wbGUgUm9vdCBDQTEXMBUGA1UEAwwOU2ltcGxlIFJv
b3QgQ0EwHhcNMjAxMjA2MTkyMzI1WhcNMzAxMjA2MTkyMzI1WjB6MRMwEQYKCZIm
iZPyLGQBGRYDb3JnMRYwFAYKCZImiZPyLGQBGRYGc2ltcGxlMRMwEQYDVQQKDApT
aW1wbGUgSW5jMRowGAYDVQQLDBFTaW1wbGUgU2lnbmluZyBDQTEaMBgGA1UEAwwR
U2ltcGxlIFNpZ25pbmcgQ0EwggEiMA0GCSqGSIb3DQEBAQUAA4IBDwAwggEKAoIB
AQCidA5xTum7nS/C0kaKso0LNQe7cSl60VNQC3c8ko/cGsyvDFrhgDbGnzMZlnQ5
04zYfaTrR2kbp18o64/kc8OSPoDL9RagMoeMMEWvDfWNsEAUNppjT2DH8I7o8D7O
aX4GNcC23GIE/A3vI/6+0mJilhyTvDaw6edtsw8tp9doCHm/HJuca9spzG7eS659
+0N8pL78zINkjQm885tikysu76B7e+fjgEcpyoZKwHx1nH9ncetLwMJ2xB6QzCFR
nmLzeHWgUY39j71iuPymcC7/mp7qgLD3JuY1gp1W9Uahg06bSlykq36PMGZcntjs
wvt8OE4EnUsTx2FwtbhmOHhNAgMBAAGjZjBkMA4GA1UdDwEB/wQEAwIBBjASBgNV
HRMBAf8ECDAGAQH/AgEAMB0GA1UdDgQWBBQutC7ppHoOHpCm5OehBsL2TDkLqzAf
BgNVHSMEGDAWgBQIaqMe1vOknDavrpCQm8QXIcknmzANBgkqhkiG9w0BAQUFAAOC
AQEAmtdxcxu0rKVSBOKnGKjnKEwmHoyfQGWxoCfNsHvfYSjCfrPMELbVF2tTkWZC
mGjI2bm3GN//KacFm72KlDYnAwXPGrHqDxH+Rmcjs3Zr8q6NZu89m5z7lXPohxQJ
f/5l6KwsMye35UDeDZY4tSj1+3Fe0Jui5R3BwoEVAbxLZPrngiCpe1erPdSkNa0Q
sq3XaQJe08oBf2tQC/EVLUn5JfPHLAIpWjpWddtL2TGz1b6JDCs0+Yde9MMZHEQ+
1mishvQIL1oYuU9JiQk+n+eHCwqzvF1ymdIehV0bfveZXV7bJHd4KPcFBDaUjjsJ
J4C22XAnw5VXS5QHwMgnsTQhJw==
-----END CERTIFICATE-----
