Certificate:
    Data:
        Version: 3 (0x2)
        Serial Number: 1 (0x1)
    Signature Algorithm: sha1WithRSAEncryption
        Issuer: DC=org, DC=simple, O=Simple Inc, OU=Simple Root CA, CN=Simple Root CA
        Validity
            Not Before: Dec  6 19:22:08 2020 GMT
            Not After : Dec  6 19:22:08 2030 GMT
        Subject: DC=org, DC=simple, O=Simple Inc, OU=Simple Signing CA, CN=Simple Signing CA
        Subject Public Key Info:
            Public Key Algorithm: rsaEncryption
                Public-Key: (2048 bit)
                Modulus:
                    00:a2:74:0e:71:4e:e9:bb:9d:2f:c2:d2:46:8a:b2:
                    8d:0b:35:07:bb:71:29:7a:d1:53:50:0b:77:3c:92:
                    8f:dc:1a:cc:af:0c:5a:e1:80:36:c6:9f:33:19:96:
                    74:39:d3:8c:d8:7d:a4:eb:47:69:1b:a7:5f:28:eb:
                    8f:e4:73:c3:92:3e:80:cb:f5:16:a0:32:87:8c:30:
                    45:af:0d:f5:8d:b0:40:14:36:9a:63:4f:60:c7:f0:
                    8e:e8:f0:3e:ce:69:7e:06:35:c0:b6:dc:62:04:fc:
                    0d:ef:23:fe:be:d2:62:62:96:1c:93:bc:36:b0:e9:
                    e7:6d:b3:0f:2d:a7:d7:68:08:79:bf:1c:9b:9c:6b:
                    db:29:cc:6e:de:4b:ae:7d:fb:43:7c:a4:be:fc:cc:
                    83:64:8d:09:bc:f3:9b:62:93:2b:2e:ef:a0:7b:7b:
                    e7:e3:80:47:29:ca:86:4a:c0:7c:75:9c:7f:67:71:
                    eb:4b:c0:c2:76:c4:1e:90:cc:21:51:9e:62:f3:78:
                    75:a0:51:8d:fd:8f:bd:62:b8:fc:a6:70:2e:ff:9a:
                    9e:ea:80:b0:f7:26:e6:35:82:9d:56:f5:46:a1:83:
                    4e:9b:4a:5c:a4:ab:7e:8f:30:66:5c:9e:d8:ec:c2:
                    fb:7c:38:4e:04:9d:4b:13:c7:61:70:b5:b8:66:38:
                    78:4d
                Exponent: 65537 (0x10001)
        X509v3 extensions:
            X509v3 Key Usage: critical
                Certificate Sign, CRL Sign
            X509v3 Basic Constraints: critical
                CA:TRUE, pathlen:0
            X509v3 Subject Key Identifier: 
                2E:B4:2E:E9:A4:7A:0E:1E:90:A6:E4:E7:A1:06:C2:F6:4C:39:0B:AB
            X509v3 Authority Key Identifier: 
                keyid:08:6A:A3:1E:D6:F3:A4:9C:36:AF:AE:90:90:9B:C4:17:21:C9:27:9B

    Signature Algorithm: sha1WithRSAEncryption
         1b:92:54:42:c1:e3:8b:ba:30:e6:06:f3:c7:0b:37:09:f4:ad:
         e5:eb:e4:d5:b7:e3:c1:2d:fe:ea:9a:9e:a3:a3:49:6d:0b:ae:
         ea:4b:88:bd:da:22:ce:08:ef:23:07:c4:22:7f:eb:60:81:17:
         04:bc:00:5c:64:24:78:0e:6e:15:73:3d:31:c5:bc:fe:ab:0f:
         e2:21:6b:a5:8d:7b:1d:67:b6:c3:82:fa:58:2f:c7:33:99:92:
         a9:b1:58:9a:1a:d5:9b:e2:b3:bc:75:f8:22:a3:d8:9f:9c:f6:
         e8:92:26:79:3d:22:3c:75:73:4c:c6:1e:f8:94:2e:fb:b9:77:
         4a:5f:c5:b9:3a:c3:30:ee:15:de:b3:ab:65:a5:44:23:e6:7d:
         44:78:46:a0:f5:60:5e:c7:67:33:76:4f:3d:a7:73:42:dc:6f:
         b9:33:82:e3:fe:9c:ae:da:00:e6:62:7d:a5:26:c5:9b:90:a0:
         4a:77:73:53:87:b8:d6:20:6d:13:36:62:ba:ed:86:c0:33:7e:
         71:97:dc:22:48:a1:e3:91:2d:8f:39:3e:a8:02:19:0e:06:00:
         6a:9e:2b:35:98:fd:d9:3f:e7:69:26:7e:5c:9f:e2:72:74:ce:
         ec:2c:2a:3f:d4:46:ed:9a:f9:4a:68:76:48:35:3c:c5:ab:e0:
         c5:b5:1f:b9
-----BEGIN CERTIFICATE-----
MIIDzzCCAregAwIBAgIBATANBgkqhkiG9w0BAQUFADB0MRMwEQYKCZImiZPyLGQB
GRYDb3JnMRYwFAYKCZImiZPyLGQBGRYGc2ltcGxlMRMwEQYDVQQKDApTaW1wbGUg
SW5jMRcwFQYDVQQLDA5TaW1wbGUgUm9vdCBDQTEXMBUGA1UEAwwOU2ltcGxlIFJv
b3QgQ0EwHhcNMjAxMjA2MTkyMjA4WhcNMzAxMjA2MTkyMjA4WjB6MRMwEQYKCZIm
iZPyLGQBGRYDb3JnMRYwFAYKCZImiZPyLGQBGRYGc2ltcGxlMRMwEQYDVQQKDApT
aW1wbGUgSW5jMRowGAYDVQQLDBFTaW1wbGUgU2lnbmluZyBDQTEaMBgGA1UEAwwR
U2ltcGxlIFNpZ25pbmcgQ0EwggEiMA0GCSqGSIb3DQEBAQUAA4IBDwAwggEKAoIB
AQCidA5xTum7nS/C0kaKso0LNQe7cSl60VNQC3c8ko/cGsyvDFrhgDbGnzMZlnQ5
04zYfaTrR2kbp18o64/kc8OSPoDL9RagMoeMMEWvDfWNsEAUNppjT2DH8I7o8D7O
aX4GNcC23GIE/A3vI/6+0mJilhyTvDaw6edtsw8tp9doCHm/HJuca9spzG7eS659
+0N8pL78zINkjQm885tikysu76B7e+fjgEcpyoZKwHx1nH9ncetLwMJ2xB6QzCFR
nmLzeHWgUY39j71iuPymcC7/mp7qgLD3JuY1gp1W9Uahg06bSlykq36PMGZcntjs
wvt8OE4EnUsTx2FwtbhmOHhNAgMBAAGjZjBkMA4GA1UdDwEB/wQEAwIBBjASBgNV
HRMBAf8ECDAGAQH/AgEAMB0GA1UdDgQWBBQutC7ppHoOHpCm5OehBsL2TDkLqzAf
BgNVHSMEGDAWgBQIaqMe1vOknDavrpCQm8QXIcknmzANBgkqhkiG9w0BAQUFAAOC
AQEAG5JUQsHji7ow5gbzxws3CfSt5evk1bfjwS3+6pqeo6NJbQuu6kuIvdoizgjv
IwfEIn/rYIEXBLwAXGQkeA5uFXM9McW8/qsP4iFrpY17HWe2w4L6WC/HM5mSqbFY
mhrVm+KzvHX4IqPYn5z26JImeT0iPHVzTMYe+JQu+7l3Sl/FuTrDMO4V3rOrZaVE
I+Z9RHhGoPVgXsdnM3ZPPadzQtxvuTOC4/6crtoA5mJ9pSbFm5CgSndzU4e41iBt
EzZiuu2GwDN+cZfcIkih45Etjzk+qAIZDgYAap4rNZj92T/naSZ+XJ/icnTO7Cwq
P9RG7Zr5Smh2SDU8xavgxbUfuQ==
-----END CERTIFICATE-----
