Certificate:
    Data:
        Version: 3 (0x2)
        Serial Number: 3 (0x3)
    Signature Algorithm: sha1WithRSAEncryption
        Issuer: DC=org, DC=simple, O=Simple Inc, OU=Simple Root CA, CN=Simple Root CA
        Validity
            Not Before: Dec  6 18:57:02 2020 GMT
            Not After : Dec  6 18:57:02 2030 GMT
        Subject: DC=org, DC=simple, O=Simple Inc, OU=Simple Signing CA, CN=Simple Signing CA
        Subject Public Key Info:
            Public Key Algorithm: rsaEncryption
                Public-Key: (2048 bit)
                Modulus:
                    00:cb:8e:2d:4e:0f:87:c7:51:71:a2:b6:0a:f0:5f:
                    b3:8f:ee:db:8a:8a:7b:42:ef:0c:1d:f7:c8:d9:07:
                    ca:50:98:08:d4:2c:b4:b8:ee:68:97:73:f5:5b:ba:
                    ac:78:a8:ca:dd:12:82:5a:fb:34:50:96:d7:14:f4:
                    7f:67:b5:89:29:34:c8:1d:c0:1a:fd:6e:4b:77:e7:
                    4e:fa:41:20:77:74:dd:b4:7f:4b:6b:b2:6d:cc:65:
                    7f:4b:2e:e6:4c:b2:c5:09:26:36:c0:b3:8c:bb:c1:
                    d4:e9:8d:30:e1:10:7d:fd:4f:f0:75:b2:03:9a:cf:
                    5b:88:ed:b0:20:25:e5:f6:50:46:28:94:c7:67:69:
                    db:98:3b:e1:b9:46:6f:e4:96:8f:38:2b:86:79:98:
                    24:3f:81:ea:c0:85:ce:3f:5d:2a:e8:00:b5:df:b3:
                    dd:80:81:7e:9a:ce:ff:80:17:8f:25:e6:3d:8c:78:
                    21:5e:48:73:20:c7:9b:92:4d:27:91:1e:c9:1e:0a:
                    b6:57:bb:a6:aa:93:51:d2:27:c8:ae:c4:44:d9:9c:
                    50:f8:f8:8f:39:5f:97:89:e5:fe:f1:bd:92:1a:46:
                    51:a6:92:aa:fb:0f:25:96:b5:c2:96:34:d8:db:a3:
                    3a:10:68:05:25:3a:4a:59:bd:ba:ec:20:ea:d9:07:
                    d6:81
                Exponent: 65537 (0x10001)
        X509v3 extensions:
            X509v3 Key Usage: critical
                Certificate Sign, CRL Sign
            X509v3 Basic Constraints: critical
                CA:TRUE, pathlen:0
            X509v3 Subject Key Identifier: 
                AE:B0:DD:81:AA:B5:4E:60:1F:C4:7F:56:38:7F:8F:DB:13:FA:D1:F2
            X509v3 Authority Key Identifier: 
                keyid:08:6A:A3:1E:D6:F3:A4:9C:36:AF:AE:90:90:9B:C4:17:21:C9:27:9B

    Signature Algorithm: sha1WithRSAEncryption
         38:85:43:ca:25:18:94:55:f4:3c:3f:b2:69:0c:ae:9b:80:98:
         1f:61:d0:a2:32:ee:6f:5f:02:69:76:73:ac:3d:d5:ae:60:3b:
         8f:f3:32:24:fa:e4:e2:08:ce:74:0b:9a:0a:73:74:53:8b:30:
         e8:59:be:cc:41:41:e9:5a:e0:87:2f:48:c3:e1:06:90:b8:a9:
         70:d3:79:c9:38:f1:0d:22:c5:2e:15:0e:71:a5:a2:91:07:5d:
         c7:1c:99:8a:bc:41:b7:85:25:6b:51:b4:8a:b1:ee:ac:95:ae:
         fd:92:6d:15:4d:8c:e3:dd:e3:76:9b:4b:67:df:ef:e2:33:fc:
         1c:25:b9:3b:ff:51:87:a7:f7:cf:0c:09:7f:dc:ae:3d:33:9f:
         84:2b:53:5d:3c:b9:15:04:a9:25:c2:3a:c6:e7:0f:80:f6:a6:
         4a:2e:fb:0f:6d:2b:5e:d5:78:82:95:5f:d9:64:e9:f5:4d:c5:
         15:0b:d2:ad:32:ba:a5:37:7a:cf:4a:02:f3:a0:c9:fc:8e:1d:
         ed:d6:d3:ac:97:6c:62:8f:c8:d6:95:1c:84:ee:86:70:f1:99:
         1a:cb:07:56:53:7c:a3:d0:38:fc:c1:5a:61:0c:16:dc:e7:14:
         f4:c0:31:1c:20:17:06:3d:bf:87:e6:2d:15:8f:0a:a5:ad:02:
         73:97:0e:8a
-----BEGIN CERTIFICATE-----
MIIDzzCCAregAwIBAgIBAzANBgkqhkiG9w0BAQUFADB0MRMwEQYKCZImiZPyLGQB
GRYDb3JnMRYwFAYKCZImiZPyLGQBGRYGc2ltcGxlMRMwEQYDVQQKDApTaW1wbGUg
SW5jMRcwFQYDVQQLDA5TaW1wbGUgUm9vdCBDQTEXMBUGA1UEAwwOU2ltcGxlIFJv
b3QgQ0EwHhcNMjAxMjA2MTg1NzAyWhcNMzAxMjA2MTg1NzAyWjB6MRMwEQYKCZIm
iZPyLGQBGRYDb3JnMRYwFAYKCZImiZPyLGQBGRYGc2ltcGxlMRMwEQYDVQQKDApT
aW1wbGUgSW5jMRowGAYDVQQLDBFTaW1wbGUgU2lnbmluZyBDQTEaMBgGA1UEAwwR
U2ltcGxlIFNpZ25pbmcgQ0EwggEiMA0GCSqGSIb3DQEBAQUAA4IBDwAwggEKAoIB
AQDLji1OD4fHUXGitgrwX7OP7tuKintC7wwd98jZB8pQmAjULLS47miXc/Vbuqx4
qMrdEoJa+zRQltcU9H9ntYkpNMgdwBr9bkt35076QSB3dN20f0trsm3MZX9LLuZM
ssUJJjbAs4y7wdTpjTDhEH39T/B1sgOaz1uI7bAgJeX2UEYolMdnaduYO+G5Rm/k
lo84K4Z5mCQ/gerAhc4/XSroALXfs92AgX6azv+AF48l5j2MeCFeSHMgx5uSTSeR
HskeCrZXu6aqk1HSJ8iuxETZnFD4+I85X5eJ5f7xvZIaRlGmkqr7DyWWtcKWNNjb
ozoQaAUlOkpZvbrsIOrZB9aBAgMBAAGjZjBkMA4GA1UdDwEB/wQEAwIBBjASBgNV
HRMBAf8ECDAGAQH/AgEAMB0GA1UdDgQWBBSusN2BqrVOYB/Ef1Y4f4/bE/rR8jAf
BgNVHSMEGDAWgBQIaqMe1vOknDavrpCQm8QXIcknmzANBgkqhkiG9w0BAQUFAAOC
AQEAOIVDyiUYlFX0PD+yaQyum4CYH2HQojLub18CaXZzrD3VrmA7j/MyJPrk4gjO
dAuaCnN0U4sw6Fm+zEFB6Vrghy9Iw+EGkLipcNN5yTjxDSLFLhUOcaWikQddxxyZ
irxBt4Ula1G0irHurJWu/ZJtFU2M493jdptLZ9/v4jP8HCW5O/9Rh6f3zwwJf9yu
PTOfhCtTXTy5FQSpJcI6xucPgPamSi77D20rXtV4gpVf2WTp9U3FFQvSrTK6pTd6
z0oC86DJ/I4d7dbTrJdsYo/I1pUchO6GcPGZGssHVlN8o9A4/MFaYQwW3OcU9MAx
HCAXBj2/h+YtFY8Kpa0Cc5cOig==
-----END CERTIFICATE-----
